; Function Attrs: mustprogress uwtable
define internal fastcc noundef zeroext i1 @_ZN12_GLOBAL__N_114SetPermissionsERKNSt7__cxx1112basic_stringIcSt11char_traitsIcESaIcEEERKjR17cmExecutionStatus(ptr noundef nonnull align 8 dereferenceable(32) %0, i32 %.0.val, ptr noundef nonnull align 8 dereferenceable(80) %1) unnamed_addr #5 personality ptr @__gxx_personality_v0 {
  %3 = alloca %"class.std::__cxx11::basic_string", align 8
  %4 = tail call i64 @_ZN5cmsys11SystemTools14SetPermissionsERKNSt7__cxx1112basic_stringIcSt11char_traitsIcESaIcEEEjb(ptr noundef nonnull align 8 dereferenceable(32) %0, i32 noundef %.0.val, i1 noundef zeroext false)
  %5 = and i64 %4, 4294967295
  %6 = icmp eq i64 %5, 0
  br i1 %6, label %27, label %7

7:                                                ; preds = %2
  call void @llvm.lifetime.start.p0(i64 32, ptr nonnull %3) #29
  call void @_ZStplIcSt11char_traitsIcESaIcEENSt7__cxx1112basic_stringIT_T0_T1_EEPKS5_RKS8_(ptr dead_on_unwind nonnull writable sret(%"class.std::__cxx11::basic_string") align 8 %3, ptr noundef nonnull @.str.486, ptr noundef nonnull align 8 dereferenceable(32) %0)
  %8 = getelementptr inbounds nuw i8, ptr %1, i64 8
  invoke void @_ZNSt7__cxx1112basic_stringIcSt11char_traitsIcESaIcEE9_M_assignERKS4_(ptr noundef nonnull align 8 dereferenceable(32) %8, ptr noundef nonnull align 8 dereferenceable(32) %3)
          to label %_ZN17cmExecutionStatus8SetErrorERKNSt7__cxx1112basic_stringIcSt11char_traitsIcESaIcEEE.exit unwind label %17

_ZN17cmExecutionStatus8SetErrorERKNSt7__cxx1112basic_stringIcSt11char_traitsIcESaIcEEE.exit: ; preds = %7
  %9 = load ptr, ptr %3, align 8, !tbaa !12
  %10 = getelementptr inbounds nuw i8, ptr %3, i64 16
  %11 = icmp eq ptr %9, %10
  br i1 %11, label %_ZNKSt7__cxx1112basic_stringIcSt11char_traitsIcESaIcEE11_M_is_localEv.exit.thread.i.i, label %_ZNKSt7__cxx1112basic_stringIcSt11char_traitsIcESaIcEE11_M_is_localEv.exit.i.i

_ZNKSt7__cxx1112basic_stringIcSt11char_traitsIcESaIcEE11_M_is_localEv.exit.thread.i.i: ; preds = %_ZN17cmExecutionStatus8SetErrorERKNSt7__cxx1112basic_stringIcSt11char_traitsIcESaIcEEE.exit
  %12 = getelementptr inbounds nuw i8, ptr %3, i64 8
  %13 = load i64, ptr %12, align 8, !tbaa !15
  %14 = icmp ult i64 %13, 16
  call void @llvm.assume(i1 %14)
  br label %_ZNSt7__cxx1112basic_stringIcSt11char_traitsIcESaIcEED2Ev.exit

_ZNKSt7__cxx1112basic_stringIcSt11char_traitsIcESaIcEE11_M_is_localEv.exit.i.i: ; preds = %_ZN17cmExecutionStatus8SetErrorERKNSt7__cxx1112basic_stringIcSt11char_traitsIcESaIcEEE.exit
  %15 = load i64, ptr %10, align 8, !tbaa !14
  %16 = add i64 %15, 1
  call void @_ZdlPvm(ptr noundef %9, i64 noundef %16) #30
  br label %_ZNSt7__cxx1112basic_stringIcSt11char_traitsIcESaIcEED2Ev.exit

_ZNSt7__cxx1112basic_stringIcSt11char_traitsIcESaIcEED2Ev.exit: ; preds = %_ZNKSt7__cxx1112basic_stringIcSt11char_traitsIcESaIcEE11_M_is_localEv.exit.thread.i.i, %_ZNKSt7__cxx1112basic_stringIcSt11char_traitsIcESaIcEE11_M_is_localEv.exit.i.i
  call void @llvm.lifetime.end.p0(i64 32, ptr nonnull %3) #29
  store i8 1, ptr @_ZN13cmSystemTools20s_FatalErrorOccurredE, align 1, !tbaa !141
  br label %27

17:                                               ; preds = %7
  %18 = landingpad { ptr, i32 }
          cleanup
  %19 = load ptr, ptr %3, align 8, !tbaa !12
  %20 = getelementptr inbounds nuw i8, ptr %3, i64 16
  %21 = icmp eq ptr %19, %20
  br i1 %21, label %_ZNKSt7__cxx1112basic_stringIcSt11char_traitsIcESaIcEE11_M_is_localEv.exit.thread.i.i7, label %_ZNKSt7__cxx1112basic_stringIcSt11char_traitsIcESaIcEE11_M_is_localEv.exit.i.i6

_ZNKSt7__cxx1112basic_stringIcSt11char_traitsIcESaIcEE11_M_is_localEv.exit.thread.i.i7: ; preds = %17
  %22 = getelementptr inbounds nuw i8, ptr %3, i64 8
  %23 = load i64, ptr %22, align 8, !tbaa !15
  %24 = icmp ult i64 %23, 16
  call void @llvm.assume(i1 %24)
  br label %_ZNSt7__cxx1112basic_stringIcSt11char_traitsIcESaIcEED2Ev.exit8

_ZNKSt7__cxx1112basic_stringIcSt11char_traitsIcESaIcEE11_M_is_localEv.exit.i.i6: ; preds = %17
  %25 = load i64, ptr %20, align 8, !tbaa !14
  %26 = add i64 %25, 1
  call void @_ZdlPvm(ptr noundef %19, i64 noundef %26) #30
  br label %_ZNSt7__cxx1112basic_stringIcSt11char_traitsIcESaIcEED2Ev.exit8

_ZNSt7__cxx1112basic_stringIcSt11char_traitsIcESaIcEED2Ev.exit8: ; preds = %_ZNKSt7__cxx1112basic_stringIcSt11char_traitsIcESaIcEE11_M_is_localEv.exit.thread.i.i7, %_ZNKSt7__cxx1112basic_stringIcSt11char_traitsIcESaIcEE11_M_is_localEv.exit.i.i6
  call void @llvm.lifetime.end.p0(i64 32, ptr nonnull %3) #29
  resume { ptr, i32 } %18

27:                                               ; preds = %2, %_ZNSt7__cxx1112basic_stringIcSt11char_traitsIcESaIcEED2Ev.exit
  ret i1 %6
}